Certificate:
    Data:
        Version: 3 (0x2)
        Serial Number: 0 (0x0)
        Signature Algorithm: sha256WithRSAEncryption
        Issuer: C=JP, ST=Tokyo, L=Tokyo, O=Systena, OU=Systena, CN=DeviceShare
        Validity
            Not Before: Jun 13 19:02:43 2020 GMT
            Not After : Sep 16 19:02:43 2022 GMT
        Subject: C=JP, ST=Tokyo, O=Systena, OU=Systena, CN=localhost
        Subject Public Key Info:
            Public Key Algorithm: rsaEncryption
                RSA Public-Key: (2048 bit)
                Modulus:
                    00:d7:7d:98:db:37:ba:35:05:0d:0e:59:ce:85:25:
                    dd:7c:85:fb:8f:51:bc:61:0e:bf:40:25:3a:43:4d:
                    48:30:c2:35:3b:9a:d5:12:61:7b:d4:3a:4e:4c:c8:
                    f3:dc:2d:dd:58:ee:c2:14:5f:d2:d8:48:19:13:a6:
                    70:a8:00:7b:52:65:42:86:a0:f2:fe:6b:f6:54:01:
                    f0:34:0e:7c:e1:e5:c2:8b:1d:49:e8:a5:bb:80:ab:
                    10:05:cf:59:10:63:09:24:3f:b2:66:87:64:6d:31:
                    33:5b:ab:26:d7:bf:17:66:d8:4d:f4:bc:5e:f9:6f:
                    08:e8:0e:bd:c5:33:1f:b9:b6:c9:ab:21:27:5a:b7:
                    07:ce:af:0e:3d:4a:ce:d1:27:77:41:f2:6d:c7:63:
                    f1:31:4a:cb:c4:8c:a4:2b:39:48:73:b6:94:98:4a:
                    4f:26:62:7a:94:44:4f:65:25:fd:74:34:fb:3f:e1:
                    2d:9f:59:53:8a:c4:43:0d:f1:2f:23:c2:d4:ad:35:
                    f8:f1:6f:fe:da:79:06:9d:9b:2d:57:84:63:f7:3c:
                    20:7f:61:b4:6a:8e:15:8c:96:06:dd:e5:13:97:0d:
                    5d:8c:a3:36:70:2f:ea:b5:6d:ee:23:8b:d0:9e:5b:
                    f6:22:af:90:bc:0e:a1:54:9e:48:76:d8:9a:cc:20:
                    63:bf
                Exponent: 65537 (0x10001)
        X509v3 extensions:
            X509v3 Basic Constraints: 
                CA:FALSE
            Netscape Comment: 
                OpenSSL Generated Certificate
            X509v3 Subject Key Identifier: 
                A9:E1:23:9E:CC:02:C9:1C:01:2C:45:AB:A0:89:24:86:F8:B8:10:1F
            X509v3 Authority Key Identifier: 
                DirName:/C=JP/ST=Tokyo/L=Tokyo/O=Systena/OU=Systena/CN=DeviceShare
                serial:64:99:E7:F3:60:D3:CA:BE:42:DE:D1:C5:40:42:44:32:48:01:D6:13

            X509v3 Subject Alternative Name: 
                DNS:localhost, DNS:wp_web, DNS:api_web
    Signature Algorithm: sha256WithRSAEncryption
         6c:62:1c:b7:d1:b6:e5:c3:fa:07:1a:72:df:58:58:73:63:71:
         57:15:7f:bb:21:88:7e:f6:05:dd:e2:95:56:ab:13:d6:05:62:
         62:46:1a:3e:17:52:a5:17:85:76:a6:2e:80:4d:1d:f9:c2:9b:
         6d:28:6d:3c:d4:a8:92:71:bb:fc:0c:9c:94:fa:71:0f:36:e1:
         9d:24:13:a5:91:ad:80:fc:93:b4:82:38:68:f7:a9:6a:12:24:
         e1:9b:6f:a1:65:77:fd:b7:f7:ae:d3:05:47:24:3c:9a:9d:a4:
         82:8d:84:a2:07:a3:fe:7f:99:71:ba:fe:de:a1:3c:16:c0:f4:
         84:74:e4:99:34:39:01:fa:f3:23:2a:53:e3:08:01:43:15:f6:
         e5:d8:4a:09:b1:85:3f:b2:8d:4e:5f:fa:21:f1:13:d7:92:d6:
         63:a6:91:0a:02:e5:cf:82:cc:82:87:31:e2:58:ab:69:b5:68:
         01:3c:c1:50:5a:65:be:42:70:1e:a0:5f:4f:b8:1b:2d:e0:95:
         b3:6d:ab:c8:b0:73:c8:4a:a8:92:e2:ed:58:fc:62:29:3e:49:
         81:22:9b:4c:de:62:30:ba:16:04:2c:7f:31:26:88:62:4a:2b:
         0b:8f:53:36:9d:64:5f:19:f6:b0:b1:db:36:69:37:07:14:ea:
         b2:ec:45:d6
-----BEGIN CERTIFICATE-----
MIIETTCCAzWgAwIBAgIBADANBgkqhkiG9w0BAQsFADBnMQswCQYDVQQGEwJKUDEO
MAwGA1UECAwFVG9reW8xDjAMBgNVBAcMBVRva3lvMRAwDgYDVQQKDAdTeXN0ZW5h
MRAwDgYDVQQLDAdTeXN0ZW5hMRQwEgYDVQQDDAtEZXZpY2VTaGFyZTAeFw0yMDA2
MTMxOTAyNDNaFw0yMjA5MTYxOTAyNDNaMFUxCzAJBgNVBAYTAkpQMQ4wDAYDVQQI
DAVUb2t5bzEQMA4GA1UECgwHU3lzdGVuYTEQMA4GA1UECwwHU3lzdGVuYTESMBAG
A1UEAwwJbG9jYWxob3N0MIIBIjANBgkqhkiG9w0BAQEFAAOCAQ8AMIIBCgKCAQEA
132Y2ze6NQUNDlnOhSXdfIX7j1G8YQ6/QCU6Q01IMMI1O5rVEmF71DpOTMjz3C3d
WO7CFF/S2EgZE6ZwqAB7UmVChqDy/mv2VAHwNA584eXCix1J6KW7gKsQBc9ZEGMJ
JD+yZodkbTEzW6sm178XZthN9Lxe+W8I6A69xTMfubbJqyEnWrcHzq8OPUrO0Sd3
QfJtx2PxMUrLxIykKzlIc7aUmEpPJmJ6lERPZSX9dDT7P+Etn1lTisRDDfEvI8LU
rTX48W/+2nkGnZstV4Rj9zwgf2G0ao4VjJYG3eUTlw1djKM2cC/qtW3uI4vQnlv2
Iq+QvA6hVJ5IdtiazCBjvwIDAQABo4IBFDCCARAwCQYDVR0TBAIwADAsBglghkgB
hvhCAQ0EHxYdT3BlblNTTCBHZW5lcmF0ZWQgQ2VydGlmaWNhdGUwHQYDVR0OBBYE
FKnhI57MAskcASxFq6CJJIb4uBAfMIGOBgNVHSMEgYYwgYOha6RpMGcxCzAJBgNV
BAYTAkpQMQ4wDAYDVQQIDAVUb2t5bzEOMAwGA1UEBwwFVG9reW8xEDAOBgNVBAoM
B1N5c3RlbmExEDAOBgNVBAsMB1N5c3RlbmExFDASBgNVBAMMC0RldmljZVNoYXJl
ghRkmefzYNPKvkLe0cVAQkQySAHWEzAlBgNVHREEHjAcgglsb2NhbGhvc3SCBndw
X3dlYoIHYXBpX3dlYjANBgkqhkiG9w0BAQsFAAOCAQEAbGIct9G25cP6Bxpy31hY
c2NxVxV/uyGIfvYF3eKVVqsT1gViYkYaPhdSpReFdqYugE0d+cKbbShtPNSoknG7
/AyclPpxDzbhnSQTpZGtgPyTtII4aPepahIk4ZtvoWV3/bf3rtMFRyQ8mp2kgo2E
ogej/n+Zcbr+3qE8FsD0hHTkmTQ5AfrzIypT4wgBQxX25dhKCbGFP7KNTl/6IfET
15LWY6aRCgLlz4LMgocx4lirabVoATzBUFplvkJwHqBfT7gbLeCVs22ryLBzyEqo
kuLtWPxiKT5JgSKbTN5iMLoWBCx/MSaIYkorC49TNp1kXxn2sLHbNmk3BxTqsuxF
1g==
-----END CERTIFICATE-----
