Certificate:
    Data:
        Version: 3 (0x2)
        Serial Number: 0 (0x0)
        Signature Algorithm: sha256WithRSAEncryption
        Issuer: C=JP, ST=Tokyo, L=Tokyo, O=systena, CN=device share
        Validity
            Not Before: Jun 10 06:52:05 2020 GMT
            Not After : Sep 13 06:52:05 2022 GMT
        Subject: C=JP, ST=Tokyo, O=systena, CN=localhost
        Subject Public Key Info:
            Public Key Algorithm: rsaEncryption
                RSA Public-Key: (2048 bit)
                Modulus:
                    00:c5:3a:66:c8:54:e3:e8:b5:eb:51:13:6a:f3:3c:
                    ad:93:f9:57:24:7e:ba:a4:35:18:ba:92:92:93:6b:
                    6f:46:42:0b:71:a3:a5:7f:c3:23:45:bf:f9:8b:c4:
                    64:b5:7b:4d:51:db:61:91:fe:59:65:70:a4:e4:a9:
                    cb:43:83:98:97:65:4e:dd:fe:4d:2a:84:d0:ec:17:
                    f3:fe:bd:01:ca:d1:9e:d8:78:46:87:09:4a:85:ff:
                    33:e4:89:c1:4d:1e:38:20:2b:30:75:c7:d4:f0:f6:
                    00:37:19:de:fe:52:e1:bd:80:75:c1:26:58:7a:53:
                    e9:db:ef:49:02:e8:b0:ff:c1:47:a8:a6:be:f7:bf:
                    36:a1:6f:61:0a:ac:5a:95:14:5e:57:af:e8:98:23:
                    be:07:05:5d:13:39:0f:c6:05:b9:00:c5:ad:34:5a:
                    50:df:db:d6:c9:01:02:88:61:9b:4d:9a:87:a9:a9:
                    4e:f6:e9:3a:a4:b2:45:f0:c6:b8:21:f5:07:29:02:
                    00:be:00:03:85:2d:29:a9:7f:04:b3:85:29:e4:3c:
                    38:76:90:f7:73:18:b9:b0:ae:40:06:8c:45:4a:1b:
                    b0:d3:0f:5c:29:dc:7a:86:6a:4b:a0:07:0f:46:76:
                    4d:8b:98:a5:64:4b:db:11:45:dc:91:7e:d2:1f:d9:
                    15:99
                Exponent: 65537 (0x10001)
        X509v3 extensions:
            X509v3 Authority Key Identifier: 
                DirName:/C=JP/ST=Tokyo/L=Tokyo/O=systena/CN=device share
                serial:25:32:1C:3B:88:53:95:D8:61:18:5E:D0:E5:B8:20:00:6B:17:69:94

            X509v3 Basic Constraints: 
                CA:FALSE
            X509v3 Key Usage: 
                Digital Signature, Non Repudiation, Key Encipherment, Data Encipherment
            X509v3 Subject Alternative Name: 
                DNS:localhost
    Signature Algorithm: sha256WithRSAEncryption
         8c:0c:8e:f8:40:bf:60:3a:55:09:29:33:9a:3a:c2:c9:35:ae:
         11:f9:50:71:7b:2f:1c:4b:27:69:2e:79:18:6f:67:5e:1d:f2:
         44:34:d6:bc:4d:07:e7:37:7b:1f:1f:37:89:2b:da:e8:4d:19:
         da:62:45:fe:94:44:7a:2e:e1:6c:c9:3f:81:41:2a:0b:0a:66:
         fe:b3:fb:91:84:1e:89:8c:7a:3d:bc:7f:43:d6:e0:32:12:a0:
         b5:b4:ce:f9:1b:da:5c:e1:19:54:12:01:97:8b:39:23:47:13:
         2c:dd:f2:5d:61:40:f9:4c:b3:45:5f:84:f5:ef:a7:8f:ca:8c:
         49:77:e1:5e:28:3a:8f:bc:68:89:41:33:f9:0a:b0:63:98:82:
         0e:15:d1:01:fa:90:13:6b:48:db:be:cb:55:cd:1f:6f:ee:19:
         eb:13:a9:84:68:d7:ee:48:d9:14:3e:6e:bc:72:3d:c0:e7:e1:
         89:c6:c4:46:de:0c:90:30:eb:38:d5:88:59:bf:15:91:8d:03:
         8b:10:ea:82:d7:60:20:f0:ae:38:48:e9:7c:94:6f:2b:34:14:
         1c:eb:31:f2:83:e3:21:2d:41:90:92:6c:d9:2a:6c:79:56:96:
         e5:01:e2:0c:7d:0b:c2:6c:bc:0c:b0:de:0e:be:65:ab:05:0f:
         8b:7f:ed:e9
-----BEGIN CERTIFICATE-----
MIIDwzCCAqugAwIBAgIBADANBgkqhkiG9w0BAQsFADBWMQswCQYDVQQGEwJKUDEO
MAwGA1UECAwFVG9reW8xDjAMBgNVBAcMBVRva3lvMRAwDgYDVQQKDAdzeXN0ZW5h
MRUwEwYDVQQDDAxkZXZpY2Ugc2hhcmUwHhcNMjAwNjEwMDY1MjA1WhcNMjIwOTEz
MDY1MjA1WjBDMQswCQYDVQQGEwJKUDEOMAwGA1UECAwFVG9reW8xEDAOBgNVBAoM
B3N5c3RlbmExEjAQBgNVBAMMCWxvY2FsaG9zdDCCASIwDQYJKoZIhvcNAQEBBQAD
ggEPADCCAQoCggEBAMU6ZshU4+i161ETavM8rZP5VyR+uqQ1GLqSkpNrb0ZCC3Gj
pX/DI0W/+YvEZLV7TVHbYZH+WWVwpOSpy0ODmJdlTt3+TSqE0OwX8/69AcrRnth4
RocJSoX/M+SJwU0eOCArMHXH1PD2ADcZ3v5S4b2AdcEmWHpT6dvvSQLosP/BR6im
vve/NqFvYQqsWpUUXlev6JgjvgcFXRM5D8YFuQDFrTRaUN/b1skBAohhm02ah6mp
TvbpOqSyRfDGuCH1BykCAL4AA4UtKal/BLOFKeQ8OHaQ93MYubCuQAaMRUobsNMP
XCnceoZqS6AHD0Z2TYuYpWRL2xFF3JF+0h/ZFZkCAwEAAaOBrjCBqzB7BgNVHSME
dDByoVqkWDBWMQswCQYDVQQGEwJKUDEOMAwGA1UECAwFVG9reW8xDjAMBgNVBAcM
BVRva3lvMRAwDgYDVQQKDAdzeXN0ZW5hMRUwEwYDVQQDDAxkZXZpY2Ugc2hhcmWC
FCUyHDuIU5XYYRhe0OW4IABrF2mUMAkGA1UdEwQCMAAwCwYDVR0PBAQDAgTwMBQG
A1UdEQQNMAuCCWxvY2FsaG9zdDANBgkqhkiG9w0BAQsFAAOCAQEAjAyO+EC/YDpV
CSkzmjrCyTWuEflQcXsvHEsnaS55GG9nXh3yRDTWvE0H5zd7Hx83iSva6E0Z2mJF
/pREei7hbMk/gUEqCwpm/rP7kYQeiYx6Pbx/Q9bgMhKgtbTO+RvaXOEZVBIBl4s5
I0cTLN3yXWFA+UyzRV+E9e+nj8qMSXfhXig6j7xoiUEz+QqwY5iCDhXRAfqQE2tI
277LVc0fb+4Z6xOphGjX7kjZFD5uvHI9wOfhicbERt4MkDDrONWIWb8VkY0DixDq
gtdgIPCuOEjpfJRvKzQUHOsx8oPjIS1BkJJs2SpseVaW5QHiDH0Lwmy8DLDeDr5l
qwUPi3/t6Q==
-----END CERTIFICATE-----
